target datalayout = "e-m:e-p270:32:32-p271:32:32-p272:64:64-i64:64-i128:128-f80:128-n8:16:32:64-S128"
target triple = "x86_64-unknown-linux-gnu"

@_ctype = external dso_local local_unnamed_addr constant [0 x i8], align 1

; Function Attrs: fn_ret_thunk_extern nofree norecurse nosync nounwind null_pointer_is_valid memory(read, argmem: readwrite, inaccessiblemem: none)
define dso_local i32 @_parse_integer_limit(ptr nocapture noundef readonly %0, i32 noundef %1, ptr nocapture noundef writeonly %2, i64 noundef %3) local_unnamed_addr #1 align 16 {
  %5 = zext i32 %1 to i64
  %6 = zext i32 %1 to i64
  br label %7

7:                                                ; preds = %47, %4
  %8 = phi ptr [ %0, %4 ], [ %48, %47 ]
  %9 = phi i64 [ %3, %4 ], [ %12, %47 ]
  %10 = phi i64 [ 0, %4 ], [ %49, %47 ]
  %11 = phi i32 [ 0, %4 ], [ %50, %47 ]
  %12 = add i64 %9, -1
  %13 = icmp eq i64 %9, 0
  br i1 %13, label %52, label %14

14:                                               ; preds = %7
  %15 = load i8, ptr %8, align 1
  %16 = or i8 %15, 32
  %17 = zext i8 %16 to i32
  %18 = add i8 %15, -48
  %19 = icmp ult i8 %18, 10
  br i1 %19, label %20, label %23

20:                                               ; preds = %14
  %21 = zext nneg i8 %15 to i32
  %22 = add nsw i32 %21, -48
  br label %28

23:                                               ; preds = %14
  %24 = add i8 %16, -97
  %25 = icmp ult i8 %24, 6
  br i1 %25, label %26, label %47

26:                                               ; preds = %23
  %27 = add nsw i32 %17, -87
  br label %28

28:                                               ; preds = %26, %20
  %29 = phi i32 [ %22, %20 ], [ %27, %26 ]
  %30 = icmp ult i32 %29, %1
  br i1 %30, label %31, label %47

31:                                               ; preds = %28
  %32 = icmp ult i64 %10, 1152921504606846976
  br i1 %32, label %40, label %33, !prof !5

33:                                               ; preds = %31
  %34 = xor i32 %29, -1
  %35 = sext i32 %34 to i64
  %36 = udiv i64 %35, %5
  %37 = icmp ugt i64 %10, %36
  %38 = or i32 %11, -2147483648
  %39 = select i1 %37, i32 %38, i32 %11
  br label %40

40:                                               ; preds = %33, %31
  %41 = phi i32 [ %11, %31 ], [ %39, %33 ]
  %42 = mul i64 %10, %6
  %43 = zext nneg i32 %29 to i64
  %44 = add i64 %42, %43
  %45 = add i32 %41, 1
  %46 = getelementptr i8, ptr %8, i64 1
  br label %47

47:                                               ; preds = %40, %28, %23
  %48 = phi ptr [ %46, %40 ], [ %8, %23 ], [ %8, %28 ]
  %49 = phi i64 [ %44, %40 ], [ %10, %23 ], [ %10, %28 ]
  %50 = phi i32 [ %45, %40 ], [ %11, %23 ], [ %11, %28 ]
  %51 = phi i1 [ true, %40 ], [ false, %23 ], [ false, %28 ]
  br i1 %51, label %7, label %52

52:                                               ; preds = %47, %7
  %53 = phi i64 [ %49, %47 ], [ %10, %7 ]
  %54 = phi i32 [ %50, %47 ], [ %11, %7 ]
  store i64 %53, ptr %2, align 8
  ret i32 %54
}

; Function Attrs: fn_ret_thunk_extern nofree norecurse nosync nounwind null_pointer_is_valid memory(read, argmem: readwrite, inaccessiblemem: none)
define dso_local i32 @_parse_integer(ptr nocapture noundef readonly %0, i32 noundef %1, ptr nocapture noundef writeonly %2) local_unnamed_addr #1 align 16 {
  %4 = tail call i32 @_parse_integer_limit(ptr noundef %0, i32 noundef %1, ptr noundef %2, i64 noundef 2147483647)
  ret i32 %4
}

; Function Attrs: fn_ret_thunk_extern mustprogress nofree norecurse nosync nounwind null_pointer_is_valid willreturn memory(argmem: readwrite)
define dso_local ptr @_parse_integer_fixup_radix(ptr noundef readonly %0, ptr nocapture noundef %1) local_unnamed_addr #0 align 16 {
  %3 = load i32, ptr %1, align 4
  %4 = icmp eq i32 %3, 0
  br i1 %4, label %5, label %24

5:                                                ; preds = %2
  %6 = load i8, ptr %0, align 1
  %7 = icmp eq i8 %6, 48
  br i1 %7, label %8, label %22

8:                                                ; preds = %5
  %9 = getelementptr i8, ptr %0, i64 1
  %10 = load i8, ptr %9, align 1
  %11 = and i8 %10, -33
  %12 = icmp eq i8 %11, 88
  br i1 %12, label %13, label %21

13:                                               ; preds = %8
  %14 = getelementptr i8, ptr %0, i64 2
  %15 = load i8, ptr %14, align 1
  %16 = zext i8 %15 to i64
  %17 = getelementptr [0 x i8], ptr @_ctype, i64 0, i64 %16
  %18 = load i8, ptr %17, align 1
  %19 = and i8 %18, 68
  %20 = icmp eq i8 %19, 0
  br i1 %20, label %21, label %22

21:                                               ; preds = %13, %8
  br label %22

22:                                               ; preds = %21, %13, %5
  %23 = phi i32 [ 8, %21 ], [ 16, %13 ], [ 10, %5 ]
  store i32 %23, ptr %1, align 4
  br label %24

24:                                               ; preds = %22, %2
  %25 = load i32, ptr %1, align 4
  %26 = icmp eq i32 %25, 16
  br i1 %26, label %27, label %37

27:                                               ; preds = %24
  %28 = load i8, ptr %0, align 1
  %29 = icmp eq i8 %28, 48
  br i1 %29, label %30, label %37

30:                                               ; preds = %27
  %31 = getelementptr i8, ptr %0, i64 1
  %32 = load i8, ptr %31, align 1
  %33 = and i8 %32, -33
  %34 = icmp eq i8 %33, 88
  %35 = select i1 %34, i64 2, i64 0
  %36 = getelementptr i8, ptr %0, i64 %35
  br label %37

37:                                               ; preds = %30, %27, %24
  %38 = phi ptr [ %0, %27 ], [ %0, %24 ], [ %36, %30 ]
  ret ptr %38
}

; Function Attrs: fn_ret_thunk_extern nofree norecurse nosync nounwind null_pointer_is_valid memory(readwrite, inaccessiblemem: none)
define dso_local noundef i32 @kstrtoll(ptr noundef %0, i32 noundef %1, ptr nocapture noundef writeonly %2) #3 align 16 {
  %4 = alloca i32, align 4
  %5 = alloca i64, align 8
  %6 = alloca i64, align 8
  call void @llvm.lifetime.start.p0(i64 8, ptr nonnull %6) #8
  store i64 0, ptr %6, align 8, !annotation !6
  %7 = load i8, ptr %0, align 1
  %8 = icmp eq i8 %7, 45
  br i1 %8, label %9, label %35

9:                                                ; preds = %3
  %10 = getelementptr i8, ptr %0, i64 1
  call void @llvm.lifetime.start.p0(i64 4, ptr nonnull %4)
  store i32 %1, ptr %4, align 4
  call void @llvm.lifetime.start.p0(i64 8, ptr nonnull %5) #8
  store i64 0, ptr %5, align 8, !annotation !6
  %11 = call ptr @_parse_integer_fixup_radix(ptr noundef %10, ptr noundef nonnull %4)
  %12 = load i32, ptr %4, align 4
  %13 = call i32 @_parse_integer(ptr noundef %11, i32 noundef %12, ptr noundef nonnull %5)
  %14 = icmp sgt i32 %13, -1
  br i1 %14, label %15, label %28

15:                                               ; preds = %9
  %16 = icmp eq i32 %13, 0
  br i1 %16, label %28, label %17

17:                                               ; preds = %15
  %18 = zext nneg i32 %13 to i64
  %19 = getelementptr i8, ptr %11, i64 %18
  %20 = load i8, ptr %19, align 1
  %21 = icmp eq i8 %20, 10
  %22 = zext i1 %21 to i64
  %23 = getelementptr i8, ptr %19, i64 %22
  %24 = load i8, ptr %23, align 1
  %25 = icmp eq i8 %24, 0
  br i1 %25, label %26, label %28

26:                                               ; preds = %17
  %27 = load i64, ptr %5, align 8
  store i64 %27, ptr %6, align 8
  br label %28

28:                                               ; preds = %26, %17, %15, %9
  %29 = phi i1 [ false, %26 ], [ true, %9 ], [ true, %15 ], [ true, %17 ]
  %30 = phi i32 [ 0, %26 ], [ -34, %9 ], [ -22, %15 ], [ -22, %17 ]
  call void @llvm.lifetime.end.p0(i64 8, ptr nonnull %5) #8
  call void @llvm.lifetime.end.p0(i64 4, ptr nonnull %4)
  br i1 %29, label %43, label %31

31:                                               ; preds = %28
  %32 = load i64, ptr %6, align 8
  %33 = sub i64 0, %32
  %34 = icmp sgt i64 %33, 0
  br i1 %34, label %43, label %41

35:                                               ; preds = %3
  %36 = call i32 @kstrtoull(ptr noundef %0, i32 noundef %1, ptr noundef nonnull %6), !range !7
  %37 = icmp slt i32 %36, 0
  br i1 %37, label %43, label %38

38:                                               ; preds = %35
  %39 = load i64, ptr %6, align 8
  %40 = icmp slt i64 %39, 0
  br i1 %40, label %43, label %41

41:                                               ; preds = %38, %31
  %42 = phi i64 [ %33, %31 ], [ %39, %38 ]
  store i64 %42, ptr %2, align 8
  br label %43

43:                                               ; preds = %41, %38, %35, %31, %28
  %44 = phi i32 [ 0, %41 ], [ %30, %28 ], [ -34, %31 ], [ %36, %35 ], [ -34, %38 ]
  call void @llvm.lifetime.end.p0(i64 8, ptr nonnull %6) #8
  ret i32 %44
}