; Function Attrs: fn_ret_thunk_extern nofree norecurse nosync nounwind null_pointer_is_valid memory(read, argmem: readwrite, inaccessiblemem: none)
define dso_local noundef i32 @kstrtoll(ptr nocapture noundef readonly %0, i32 noundef %1, ptr nocapture noundef writeonly %2) #1 align 16 {
  %4 = alloca i64, align 8
  call void @llvm.lifetime.start.p0(i64 8, ptr nonnull %4) #7
  %5 = load i8, ptr %0, align 1
  %6 = icmp eq i8 %5, 45
  br i1 %6, label %7, label %86

7:                                                ; preds = %3
  %8 = getelementptr i8, ptr %0, i64 1
  switch i32 %1, label %_parse_integer_fixup_radix.exit [
    i32 0, label %9
    i32 16, label %.thread8
  ]

9:                                                ; preds = %7
  %10 = load i8, ptr %8, align 1
  %11 = icmp eq i8 %10, 48
  br i1 %11, label %12, label %_parse_integer_fixup_radix.exit

12:                                               ; preds = %9
  %13 = getelementptr i8, ptr %0, i64 2
  %14 = load i8, ptr %13, align 1
  %15 = and i8 %14, -33
  %16 = icmp eq i8 %15, 88
  br i1 %16, label %17, label %_parse_integer_fixup_radix.exit

17:                                               ; preds = %12
  %18 = getelementptr i8, ptr %0, i64 3
  %19 = load i8, ptr %18, align 1
  %20 = zext i8 %19 to i64
  %21 = getelementptr [0 x i8], ptr @_ctype, i64 0, i64 %20
  %22 = load i8, ptr %21, align 1
  %23 = and i8 %22, 68
  %24 = icmp eq i8 %23, 0
  br i1 %24, label %_parse_integer_fixup_radix.exit, label %.thread8.thread

.thread8:                                         ; preds = %7
  %.pre = load i8, ptr %8, align 1
  %25 = icmp eq i8 %.pre, 48
  br i1 %25, label %.thread8.thread, label %_parse_integer_fixup_radix.exit

.thread8.thread:                                  ; preds = %17, %.thread8
  %26 = getelementptr i8, ptr %0, i64 2
  %27 = load i8, ptr %26, align 1
  %28 = and i8 %27, -33
  %29 = icmp eq i8 %28, 88
  %30 = select i1 %29, i64 2, i64 0
  %31 = getelementptr i8, ptr %8, i64 %30
  br label %_parse_integer_fixup_radix.exit

_parse_integer_fixup_radix.exit:                  ; preds = %7, %12, %17, %9, %.thread8, %.thread8.thread
  %.07 = phi i32 [ 16, %.thread8 ], [ 16, %.thread8.thread ], [ 10, %9 ], [ 8, %17 ], [ 8, %12 ], [ %1, %7 ]
  %32 = phi ptr [ %8, %.thread8 ], [ %31, %.thread8.thread ], [ %8, %9 ], [ %8, %17 ], [ %8, %12 ], [ %8, %7 ]
  %33 = zext i32 %.07 to i64
  br label %.lr.ph.i.i

.lr.ph.i.i:                                       ; preds = %63, %_parse_integer_fixup_radix.exit
  %.in.i.i = phi i64 [ %37, %63 ], [ 2147483647, %_parse_integer_fixup_radix.exit ]
  %34 = phi i32 [ %68, %63 ], [ 0, %_parse_integer_fixup_radix.exit ]
  %35 = phi i64 [ %67, %63 ], [ 0, %_parse_integer_fixup_radix.exit ]
  %36 = phi ptr [ %69, %63 ], [ %32, %_parse_integer_fixup_radix.exit ]
  %37 = add nsw i64 %.in.i.i, -1
  %38 = load i8, ptr %36, align 1
  %39 = or i8 %38, 32
  %40 = zext i8 %39 to i32
  %41 = add i8 %38, -48
  %42 = icmp ult i8 %41, 10
  br i1 %42, label %43, label %46

43:                                               ; preds = %.lr.ph.i.i
  %44 = zext nneg i8 %38 to i32
  %45 = add nsw i32 %44, -48
  br label %51

46:                                               ; preds = %.lr.ph.i.i
  %47 = add i8 %39, -97
  %48 = icmp ult i8 %47, 6
  br i1 %48, label %49, label %_parse_integer.exit

49:                                               ; preds = %46
  %50 = add nsw i32 %40, -87
  br label %51

51:                                               ; preds = %49, %43
  %52 = phi i32 [ %45, %43 ], [ %50, %49 ]
  %53 = icmp ult i32 %52, %.07
  br i1 %53, label %54, label %_parse_integer.exit

54:                                               ; preds = %51
  %55 = icmp ult i64 %35, 1152921504606846976
  br i1 %55, label %63, label %56, !prof !5

56:                                               ; preds = %54
  %57 = xor i32 %52, -1
  %58 = sext i32 %57 to i64
  %59 = udiv i64 %58, %33
  %60 = icmp ugt i64 %35, %59
  %61 = or i32 %34, -2147483648
  %62 = select i1 %60, i32 %61, i32 %34
  br label %63

63:                                               ; preds = %56, %54
  %64 = phi i32 [ %34, %54 ], [ %62, %56 ]
  %65 = mul i64 %35, %33
  %66 = zext nneg i32 %52 to i64
  %67 = add i64 %65, %66
  %68 = add i32 %64, 1
  %69 = getelementptr i8, ptr %36, i64 1
  %70 = icmp eq i64 %37, 0
  br i1 %70, label %_parse_integer.exit, label %.lr.ph.i.i

_parse_integer.exit:                              ; preds = %46, %51, %63
  %.lcssa2.i.i = phi i64 [ %35, %51 ], [ %35, %46 ], [ %67, %63 ]
  %.lcssa.i.i = phi i32 [ %34, %51 ], [ %34, %46 ], [ %68, %63 ]
  %71 = icmp sgt i32 %.lcssa.i.i, -1
  br i1 %71, label %72, label %.thread12

72:                                               ; preds = %_parse_integer.exit
  %73 = icmp eq i32 %.lcssa.i.i, 0
  br i1 %73, label %.thread12, label %74

74:                                               ; preds = %72
  %75 = zext nneg i32 %.lcssa.i.i to i64
  %76 = getelementptr i8, ptr %32, i64 %75
  %77 = load i8, ptr %76, align 1
  %78 = icmp eq i8 %77, 10
  %79 = zext i1 %78 to i64
  %80 = getelementptr i8, ptr %76, i64 %79
  %81 = load i8, ptr %80, align 1
  %82 = icmp eq i8 %81, 0
  br i1 %82, label %83, label %.thread12

83:                                               ; preds = %74
  %84 = sub i64 0, %.lcssa2.i.i
  %85 = icmp sgt i64 %84, 0
  br i1 %85, label %.thread12, label %92

86:                                               ; preds = %3
  store i64 0, ptr %4, align 8, !annotation !6
  %87 = call i32 @kstrtoull(ptr noundef %0, i32 noundef %1, ptr noundef nonnull %4), !range !7
  %88 = icmp slt i32 %87, 0
  br i1 %88, label %.thread12, label %89

89:                                               ; preds = %86
  %90 = load i64, ptr %4, align 8
  %91 = icmp slt i64 %90, 0
  br i1 %91, label %.thread12, label %92

92:                                               ; preds = %89, %83
  %93 = phi i64 [ %84, %83 ], [ %90, %89 ]
  store i64 %93, ptr %2, align 8
  br label %.thread12

.thread12:                                        ; preds = %74, %72, %_parse_integer.exit, %92, %89, %86, %83
  %94 = phi i32 [ 0, %92 ], [ -34, %83 ], [ %87, %86 ], [ -34, %89 ], [ -22, %74 ], [ -22, %72 ], [ -34, %_parse_integer.exit ]
  call void @llvm.lifetime.end.p0(i64 8, ptr nonnull %4) #7
  ret i32 %94
}